target datalayout = "e-m:e-p270:32:32-p271:32:32-p272:64:64-i64:64-i128:128-f80:128-n8:16:32:64-S128"
target triple = "x86_64-pc-linux-gnu"

%"struct.cv::UsacParams" = type { double, i8, i32, i32, i32, i32, i32, i32, i32, i32, double, i32, i32 }

; Function Attrs: mustprogress nounwind uwtable
define void @_ZN2cv10UsacParamsC2Ev(ptr noundef nonnull align 8 dereferenceable(64) %0) unnamed_addr #4 align 2 {
  %2 = alloca ptr, align 8
  store ptr %0, ptr %2, align 8, !tbaa !3
  %3 = load ptr, ptr %2, align 8
  %4 = getelementptr inbounds nuw %"struct.cv::UsacParams", ptr %3, i32 0, i32 0
  store double 0x3FEFAE147AE147AE, ptr %4, align 8, !tbaa !8
  %5 = getelementptr inbounds nuw %"struct.cv::UsacParams", ptr %3, i32 0, i32 1
  store i8 0, ptr %5, align 8, !tbaa !18
  %6 = getelementptr inbounds nuw %"struct.cv::UsacParams", ptr %3, i32 0, i32 2
  store i32 5, ptr %6, align 4, !tbaa !19
  %7 = getelementptr inbounds nuw %"struct.cv::UsacParams", ptr %3, i32 0, i32 3
  store i32 1, ptr %7, align 8, !tbaa !20
  %8 = getelementptr inbounds nuw %"struct.cv::UsacParams", ptr %3, i32 0, i32 4
  store i32 14, ptr %8, align 4, !tbaa !21
  %9 = getelementptr inbounds nuw %"struct.cv::UsacParams", ptr %3, i32 0, i32 5
  store i32 5000, ptr %9, align 8, !tbaa !22
  %10 = getelementptr inbounds nuw %"struct.cv::UsacParams", ptr %3, i32 0, i32 6
  store i32 1, ptr %10, align 4, !tbaa !23
  %11 = getelementptr inbounds nuw %"struct.cv::UsacParams", ptr %3, i32 0, i32 7
  store i32 0, ptr %11, align 8, !tbaa !24
  %12 = getelementptr inbounds nuw %"struct.cv::UsacParams", ptr %3, i32 0, i32 8
  store i32 0, ptr %12, align 4, !tbaa !25
  %13 = getelementptr inbounds nuw %"struct.cv::UsacParams", ptr %3, i32 0, i32 9
  store i32 1, ptr %13, align 8, !tbaa !26
  %14 = getelementptr inbounds nuw %"struct.cv::UsacParams", ptr %3, i32 0, i32 10
  store double 1.500000e+00, ptr %14, align 8, !tbaa !27
  %15 = getelementptr inbounds nuw %"struct.cv::UsacParams", ptr %3, i32 0, i32 11
  store i32 3, ptr %15, align 8, !tbaa !28
  %16 = getelementptr inbounds nuw %"struct.cv::UsacParams", ptr %3, i32 0, i32 12
  store i32 3, ptr %16, align 4, !tbaa !29
  ret void
}